(lp0
(dp1
I0
I556
sI1
I492
sI2
I502
sI3
I531
sI4
I592
sI5
I496
sI6
I508
sI7
I664
sI8
I503
sI9
F0.20000000000000004
sa(dp2
I0
I573
sI1
I504
sI2
I500
sI3
I531
sI4
I829
sI5
I715
sI6
I469
sI7
I518
sI8
I508
sI9
F0.20000000000000015
sa(dp3
I0
I557
sI1
I492
sI2
I502
sI3
I531
sI4
I591
sI5
I496
sI6
I508
sI7
I664
sI8
I503
sI9
F0.20000000000000015
sa(dp4
I0
I573
sI1
I504
sI2
I500
sI3
I531
sI4
I828
sI5
I713
sI6
I469
sI7
I518
sI8
I508
sI9
F0.20000000000000015
sa(dp5
I0
I557
sI1
I492
sI2
I502
sI3
I531
sI4
I591
sI5
I496
sI6
I508
sI7
I664
sI8
I503
sI9
F0.20000000000000015
sa(dp6
I0
I573
sI1
I504
sI2
I501
sI3
I531
sI4
I828
sI5
I713
sI6
I469
sI7
I518
sI8
I508
sI9
F0.20000000000000015
sa(dp7
I0
I557
sI1
I492
sI2
I502
sI3
I531
sI4
I592
sI5
I496
sI6
I508
sI7
I664
sI8
I503
sI9
F0.20000000000000015
sa.