(lp0
(dp1
I0
I842
sI1
I170
sI2
I517
sI3
I443
sI4
I525
sI5
I834
sI6
I507
sI7
I561
sI8
I502
sI9
F0.20000000000000004
sa(dp2
I0
I758
sI1
I285
sI2
I634
sI3
I503
sI4
I524
sI5
I834
sI6
I507
sI7
I561
sI8
I506
sI9
F0.20000000000000015
sa(dp3
I0
I734
sI1
I248
sI2
I513
sI3
I441
sI4
I522
sI5
I832
sI6
I507
sI7
I561
sI8
I506
sI9
F0.20000000000000015
sa(dp4
I0
I839
sI1
I168
sI2
I631
sI3
I528
sI4
I524
sI5
I834
sI6
I507
sI7
I561
sI8
I502
sI9
F0.20000000000000015
sa(dp5
I0
I842
sI1
I170
sI2
I518
sI3
I443
sI4
I526
sI5
I834
sI6
I507
sI7
I561
sI8
I502
sI9
F0.20000000000000015
sa(dp6
I0
I750
sI1
I291
sI2
I637
sI3
I503
sI4
I521
sI5
I834
sI6
I507
sI7
I561
sI8
I506
sI9
F0.20000000000000015
sa(dp7
I0
I726
sI1
I264
sI2
I514
sI3
I438
sI4
I521
sI5
I834
sI6
I507
sI7
I561
sI8
I506
sI9
F0.20000000000000015
sa.