(lp0
(dp1
I0
I587
sI1
I424
sI2
I610
sI3
I610
sI4
I695
sI5
I697
sI6
I506
sI7
I568
sI8
I508
sI9
F0.20000000000000004
sa(dp2
I0
I436
sI1
I557
sI2
I604
sI3
I607
sI4
I695
sI5
I695
sI6
I506
sI7
I567
sI8
I508
sI9
F0.20000000000000015
sa(dp3
I0
I441
sI1
I552
sI2
I494
sI3
I541
sI4
I695
sI5
I695
sI6
I506
sI7
I568
sI8
I508
sI9
F0.20000000000000015
sa(dp4
I0
I499
sI1
I509
sI2
I426
sI3
I444
sI4
I694
sI5
I694
sI6
I506
sI7
I568
sI8
I508
sI9
F0.20000000000000015
sa(dp5
I0
I575
sI1
I446
sI2
I420
sI3
I440
sI4
I694
sI5
I694
sI6
I505
sI7
I567
sI8
I508
sI9
F0.20000000000000015
sa(dp6
I0
I641
sI1
I379
sI2
I439
sI3
I476
sI4
I693
sI5
I694
sI6
I506
sI7
I567
sI8
I508
sI9
F0.20000000000000015
sa(dp7
I0
I662
sI1
I365
sI2
I569
sI3
I583
sI4
I693
sI5
I694
sI6
I506
sI7
I568
sI8
I508
sI9
F0.20000000000000015
sa(dp8
I0
I650
sI1
I392
sI2
I658
sI3
I611
sI4
I693
sI5
I694
sI6
I506
sI7
I567
sI8
I508
sI9
F0.20000000000000015
sa(dp9
I0
I536
sI1
I466
sI2
I655
sI3
I611
sI4
I693
sI5
I694
sI6
I506
sI7
I568
sI8
I508
sI9
F0.20000000000000015
sa(dp10
I0
I443
sI1
I548
sI2
I583
sI3
I609
sI4
I693
sI5
I694
sI6
I506
sI7
I568
sI8
I508
sI9
F0.20000000000000015
sa(dp11
I0
I434
sI1
I566
sI2
I495
sI3
I541
sI4
I693
sI5
I691
sI6
I506
sI7
I567
sI8
I508
sI9
F0.20000000000000015
sa.