(dp0
S'Is it brown?'
p1
S'/home/guichristmann/Programming/TCC_Beo_Game/Beo_Audio/audio_files/LVSSBTXISZTNWMR.mp3'
p2
sS"We will do that by asking 'Yes' and 'No' questions about the features of these objects."
p3
S'/home/guichristmann/Programming/TCC_Beo_Game/Beo_Audio/audio_files/LUOWAWZZCQTBRMF.mp3'
p4
sS'Is it big?'
p5
S'/home/guichristmann/Programming/TCC_Beo_Game/Beo_Audio/audio_files/GJBHBQPAYKMUWMT.mp3'
p6
sS"Okay, I'm ready. You can start asking me questions."
p7
S'/home/guichristmann/Programming/TCC_Beo_Game/Beo_Audio/audio_files/UXBYBLHNSMJQJUB.mp3'
p8
sS'yes'
p9
S'/home/guichristmann/Programming/TCC_Beo_Game/Beo_Audio/audio_files/BOWQJSEBNNILXVN.mp3'
p10
sS'Foda-se, mermaum'
p11
S'/home/guichristmann/Programming/TCC_Beo_Game/Beo_Audio/audio_files/ZFTTPQEAWKMHFPY.mp3'
p12
sS'Is it hard-cover?'
p13
S'/home/guichristmann/Programming/TCC_Beo_Game/Beo_Audio/audio_files/FHKHAPYSAHBVLGV.mp3'
p14
sS"You're thinking of the plain_orange_ball?. Right?"
p15
S'/home/guichristmann/Programming/TCC_Beo_Game/Beo_Audio/audio_files/SKJQGXTANSACMON.mp3'
p16
sS'vamo se droga rsrsrs'
p17
S'/home/guichristmann/Programming/TCC_Beo_Game/Beo_Audio/audio_files/TVZWDXVCWZWIXJI.mp3'
p18
sS'Is it ink?'
p19
S'/home/guichristmann/Programming/TCC_Beo_Game/Beo_Audio/audio_files/VJKYSJSCEZULKUF.mp3'
p20
sS'Is it tiny?'
p21
S'/home/guichristmann/Programming/TCC_Beo_Game/Beo_Audio/audio_files/UBTTBRXKOSDPPTG.mp3'
p22
sS'Is it batman?'
p23
S'/home/guichristmann/Programming/TCC_Beo_Game/Beo_Audio/audio_files/RSLYONFVUVSJSZL.mp3'
p24
sS"Ahhh. I can't believe I was wrong."
p25
S'/home/guichristmann/Programming/TCC_Beo_Game/Beo_Audio/audio_files/ERMUJCCSKDVMEGX.mp3'
p26
sS'Each of us will take turns in choosing an object, and the other person has to guess what it is.'
p27
S'/home/guichristmann/Programming/TCC_Beo_Game/Beo_Audio/audio_files/VINMWHIAANUCDAK.mp3'
p28
sS"You're thinking of the white_marker?. Right?"
p29
S'/home/guichristmann/Programming/TCC_Beo_Game/Beo_Audio/audio_files/EERLGFCXMDAOUPY.mp3'
p30
sS'hehehehe'
p31
S'/home/guichristmann/Programming/TCC_Beo_Game/Beo_Audio/audio_files/IJFAKITBFVDQGGV.mp3'
p32
sS'Is it large?'
p33
S'/home/guichristmann/Programming/TCC_Beo_Game/Beo_Audio/audio_files/VGTNBWUYOIAQIUH.mp3'
p34
sS"Okay, I'm ready. You can ask me 5 questions."
p35
S'/home/guichristmann/Programming/TCC_Beo_Game/Beo_Audio/audio_files/IVRVXYAIDOQLBGG.mp3'
p36
sS'Is it blacktipped?'
p37
S'/home/guichristmann/Programming/TCC_Beo_Game/Beo_Audio/audio_files/PWHEIZOSAIXHYPT.mp3'
p38
sS'No.'
p39
S'/home/guichristmann/Programming/TCC_Beo_Game/Beo_Audio/audio_files/ASEAXQBSQILCNUG.mp3'
p40
sS"You're thinking of the movie encyclopedia?. Right?"
p41
S'/home/guichristmann/Programming/TCC_Beo_Game/Beo_Audio/audio_files/DPXEIEGLLAIDZPK.mp3'
p42
sS"We will do that by asking 'Yes' and 'No' questions about the characteristics of these objects."
p43
S'/home/guichristmann/Programming/TCC_Beo_Game/Beo_Audio/audio_files/BHHJCLYIOKMISMJ.mp3'
p44
sS'Yesss. I knew it.'
p45
S'/home/guichristmann/Programming/TCC_Beo_Game/Beo_Audio/audio_files/FUQGOSGUPXALGLS.mp3'
p46
sS'aaaaaaaaaaaaaaaaaaaaaaaaaaaaaaaaaaaaaaaaaaaaaaaaaaaaaaaaaaaaaaaaaa'
p47
S'/home/guichristmann/Programming/TCC_Beo_Game/Beo_Audio/audio_files/KZYUSDHKWCHUQHM.mp3'
p48
sS'vai toma no cu, entao'
p49
S'/home/guichristmann/Programming/TCC_Beo_Game/Beo_Audio/audio_files/KNEISGFLIJQMBOD.mp3'
p50
sS'Is it transparent?'
p51
S'/home/guichristmann/Programming/TCC_Beo_Game/Beo_Audio/audio_files/DXBPRORMASLSDAN.mp3'
p52
sS'Is it yellow?'
p53
S'/home/guichristmann/Programming/TCC_Beo_Game/Beo_Audio/audio_files/SZNBFIHBYGYKRIW.mp3'
p54
sS'Answer my questions!'
p55
S'/home/guichristmann/Programming/TCC_Beo_Game/Beo_Audio/audio_files/PSFAGBRLMJKARFW.mp3'
p56
sS'All our questions should start with "Is it?" like "Is it big?", "Is it white?", "Is it a cylinder?"'
p57
S'/home/guichristmann/Programming/TCC_Beo_Game/Beo_Audio/audio_files/PICZOZJCQHGDADP.mp3'
p58
sS'Hello.'
p59
S'/home/guichristmann/Programming/TCC_Beo_Game/Beo_Audio/audio_files/SSZKDFTNAQCAUVD.mp3'
p60
sS'Escrevi e sai correndo.'
p61
S'/home/guichristmann/Programming/TCC_Beo_Game/Beo_Audio/audio_files/CQOAEGGCBCRWVSE.mp3'
p62
sS'Is it movies?'
p63
S'/home/guichristmann/Programming/TCC_Beo_Game/Beo_Audio/audio_files/JBDCTFAVJKOVQTX.mp3'
p64
sS'Is it notebook?'
p65
S'/home/guichristmann/Programming/TCC_Beo_Game/Beo_Audio/audio_files/IWJWRKTERNIKSVE.mp3'
p66
sS'All our questions should start with Is it?. For example: Is it big?, Is it white? or Is it a cylinder?'
p67
S'/home/guichristmann/Programming/TCC_Beo_Game/Beo_Audio/audio_files/UMDBIOXWEJFIKYS.mp3'
p68
sS'palavra nova'
p69
S'/home/guichristmann/Programming/TCC_Beo_Game/Beo_Audio/audio_files/CCCJSAWPTBIBVZP.mp3'
p70
sS"You're thinking of the fiction book?. Right?"
p71
S'/home/guichristmann/Programming/TCC_Beo_Game/Beo_Audio/audio_files/EIAEDCPYZMNZHKZ.mp3'
p72
sS'cara do google de cu eh rola'
p73
S'/home/guichristmann/Programming/TCC_Beo_Game/Beo_Audio/audio_files/PBNJVSALWPPFRBH.mp3'
p74
sS'Is it white?'
p75
S'/home/guichristmann/Programming/TCC_Beo_Game/Beo_Audio/audio_files/NYRWQWVRIXSPFQB.mp3'
p76
sS'First, we have to decide who will be the first guesser.'
p77
S'/home/guichristmann/Programming/TCC_Beo_Game/Beo_Audio/audio_files/KCKRTKHHSQYVGCF.mp3'
p78
sS'Wanna play a game?'
p79
S'/home/guichristmann/Programming/TCC_Beo_Game/Beo_Audio/audio_files/TAFRISMOYCYSIKO.mp3'
p80
sS"You're out of questions. Show me the object you're thinking of."
p81
S'/home/guichristmann/Programming/TCC_Beo_Game/Beo_Audio/audio_files/JGQJXLIVLRNPSZL.mp3'
p82
sS'Did you understand everything so far?'
p83
S'/home/guichristmann/Programming/TCC_Beo_Game/Beo_Audio/audio_files/OEHXFYNUJNMSFYQ.mp3'
p84
sS"You're thinking of the black transparent pen?. Right?"
p85
S'/home/guichristmann/Programming/TCC_Beo_Game/Beo_Audio/audio_files/BDGNYTRLOOOWJOA.mp3'
p86
sS'Is it cylinder?'
p87
S'/home/guichristmann/Programming/TCC_Beo_Game/Beo_Audio/audio_files/EODWGDRBLDIDUZU.mp3'
p88
sS'Fala algo ai que eu quero ver se to funcionando direito'
p89
S'/home/guichristmann/Programming/TCC_Beo_Game/Beo_Audio/audio_files/HCCOUQEKHXBPZYW.mp3'
p90
sS'All our questions should start with "Is it?". For example: Is it big?, Is it white? or Is it a cylinder?'
p91
S'/home/guichristmann/Programming/TCC_Beo_Game/Beo_Audio/audio_files/NKVFDJZSEUSZRJE.mp3'
p92
sS'Is it heavy?'
p93
S'/home/guichristmann/Programming/TCC_Beo_Game/Beo_Audio/audio_files/UUWOPFXXESFRMFE.mp3'
p94
sS'Is it blue?'
p95
S'/home/guichristmann/Programming/TCC_Beo_Game/Beo_Audio/audio_files/SNPXUVKPHSYDAKM.mp3'
p96
sS'yess'
p97
S'/home/guichristmann/Programming/TCC_Beo_Game/Beo_Audio/audio_files/BXETCNLZILFLZAA.mp3'
p98
sS'Yes.'
p99
S'/home/guichristmann/Programming/TCC_Beo_Game/Beo_Audio/audio_files/ZIYMZDKTVGPQNDZ.mp3'
p100
sS'foda-se'
p101
S'./audio_files/RGTGBBQUGNMJBYT.mp3'
p102
sS'When you are ready, say YES.'
p103
S'/home/guichristmann/Programming/TCC_Beo_Game/Beo_Audio/audio_files/YHCTIQKCUAOILRA.mp3'
p104
sS'Is it smooth?'
p105
S'/home/guichristmann/Programming/TCC_Beo_Game/Beo_Audio/audio_files/QIMMKFFACINSJJW.mp3'
p106
sS'Is it blank?'
p107
S'/home/guichristmann/Programming/TCC_Beo_Game/Beo_Audio/audio_files/DJCYCOQZBVVUYUI.mp3'
p108
sS'Is it orange?'
p109
S'/home/guichristmann/Programming/TCC_Beo_Game/Beo_Audio/audio_files/ZZBFDCDWVBRDMXR.mp3'
p110
sS"I'm gonna use my huuuuge computing powers to choose a random number."
p111
S'/home/guichristmann/Programming/TCC_Beo_Game/Beo_Audio/audio_files/MMWHYJWGGPLKWBQ.mp3'
p112
sS'Congratulations.'
p113
S'/home/guichristmann/Programming/TCC_Beo_Game/Beo_Audio/audio_files/OIZAYRDYQPHVSQY.mp3'
p114
sS"Okay, I'm going to try and guess which object you chose!"
p115
S'/home/guichristmann/Programming/TCC_Beo_Game/Beo_Audio/audio_files/TVZEKONCCIRIYWO.mp3'
p116
sS'Is it small?'
p117
S'/home/guichristmann/Programming/TCC_Beo_Game/Beo_Audio/audio_files/BVWRWQSIVQNYXCB.mp3'
p118
sS'cu'
p119
S'/home/guichristmann/Programming/TCC_Beo_Game/Beo_Audio/audio_files/YLUHRIYIIUVJHZE.mp3'
p120
sS'Hmmmm...'
p121
S'/home/guichristmann/Programming/TCC_Beo_Game/Beo_Audio/audio_files/EQYJBVWQWMZYOKA.mp3'
p122
sS'Is it soft?'
p123
S'/home/guichristmann/Programming/TCC_Beo_Game/Beo_Audio/audio_files/VXGQOBORNZXCGQC.mp3'
p124
sS'Is it squishy?'
p125
S'/home/guichristmann/Programming/TCC_Beo_Game/Beo_Audio/audio_files/MEQHXCAMAZVVDVW.mp3'
p126
sS'vai todo mundo toma no cu'
p127
S'./audio_files/IKBKEDCEEKVKDNH.mp3'
p128
sS'Is it striped?'
p129
S'/home/guichristmann/Programming/TCC_Beo_Game/Beo_Audio/audio_files/KPZPUETAEIZIRYO.mp3'
p130
sS"You're thinking of the blue transparent pen?. Right?"
p131
S'/home/guichristmann/Programming/TCC_Beo_Game/Beo_Audio/audio_files/ZGFBHYCJGDDBOHM.mp3'
p132
sS'Is it hard?'
p133
S'/home/guichristmann/Programming/TCC_Beo_Game/Beo_Audio/audio_files/HJVOHLXNULCRFBX.mp3'
p134
sS'VAI TODO MUNDO TOMA NO CU'
p135
S'./audio_files/JXJBDLYQRXDTZUP.mp3'
p136
sS"Then I'll explain it one more time."
p137
S'/home/guichristmann/Programming/TCC_Beo_Game/Beo_Audio/audio_files/IEQTFENBRDDNDVH.mp3'
p138
sS'Is it plain?'
p139
S'/home/guichristmann/Programming/TCC_Beo_Game/Beo_Audio/audio_files/LIRNAMCPRJHUSUF.mp3'
p140
sS'Is it thin?'
p141
S'/home/guichristmann/Programming/TCC_Beo_Game/Beo_Audio/audio_files/BEDHUUJPZMZNSCO.mp3'
p142
sS"Now it's your turn to be the guesser."
p143
S'/home/guichristmann/Programming/TCC_Beo_Game/Beo_Audio/audio_files/EMWOYNCZABKNKQI.mp3'
p144
sS'Is it rectangular?'
p145
S'/home/guichristmann/Programming/TCC_Beo_Game/Beo_Audio/audio_files/TINVSUPSKKVBZCE.mp3'
p146
sS"You're thinking of the basketball?. Right?"
p147
S'/home/guichristmann/Programming/TCC_Beo_Game/Beo_Audio/audio_files/UWSOALHMVIQYOYA.mp3'
p148
sS"I'm gonna pick an object. Give me a second."
p149
S'/home/guichristmann/Programming/TCC_Beo_Game/Beo_Audio/audio_files/PSZNRMXDBTCFZYY.mp3'
p150
sS"Okay, then. Let's start."
p151
S'/home/guichristmann/Programming/TCC_Beo_Game/Beo_Audio/audio_files/APIOGEQBYFKZTUO.mp3'
p152
sS"Okay, I will start as the guesser. Pick one of the objects in front of us. But don't tell me!"
p153
S'/home/guichristmann/Programming/TCC_Beo_Game/Beo_Audio/audio_files/VWOHARJWSRRWABJ.mp3'
p154
sS"You're thinking of the soccer_ball?. Right?"
p155
S'/home/guichristmann/Programming/TCC_Beo_Game/Beo_Audio/audio_files/QACEIKJNLMVQILM.mp3'
p156
sS'Entao vai tomar no cu, beijos.'
p157
S'/home/guichristmann/Programming/TCC_Beo_Game/Beo_Audio/audio_files/LORIVMBLFKATEAE.mp3'
p158
sS'vamo se drogar hihihi'
p159
S'/home/guichristmann/Programming/TCC_Beo_Game/Beo_Audio/audio_files/ITUWXCNVZRDFUJH.mp3'
p160
sS'This will be a guessing game with these objects in front of us.'
p161
S'/home/guichristmann/Programming/TCC_Beo_Game/Beo_Audio/audio_files/GPZZCTPZNABYFLP.mp3'
p162
sS'Show demais, mermaum'
p163
S'/home/guichristmann/Programming/TCC_Beo_Game/Beo_Audio/audio_files/RGLLIRALMMBEIIE.mp3'
p164
sS'Is it thick?'
p165
S'/home/guichristmann/Programming/TCC_Beo_Game/Beo_Audio/audio_files/XIATYGEHAINJFUC.mp3'
p166
sS'This will be a guessing game.'
p167
S'/home/guichristmann/Programming/TCC_Beo_Game/Beo_Audio/audio_files/QGEGKMHEMYXFVGQ.mp3'
p168
sS"You're thinking of the notebook?. Right?"
p169
S'/home/guichristmann/Programming/TCC_Beo_Game/Beo_Audio/audio_files/SPAPKPNAAELQMTB.mp3'
p170
sS'I think you made a mistake...'
p171
S'/home/guichristmann/Programming/TCC_Beo_Game/Beo_Audio/audio_files/YOWRVSJMMSRFLJV.mp3'
p172
sS'Is it colorful?'
p173
S'/home/guichristmann/Programming/TCC_Beo_Game/Beo_Audio/audio_files/BKEKQGHPRTISYAP.mp3'
p174
sS"You're thinking of the journal?. Right?"
p175
S'/home/guichristmann/Programming/TCC_Beo_Game/Beo_Audio/audio_files/EMBNINDZXEWPXER.mp3'
p176
sS"You're thinking of the fiction_book?. Right?"
p177
S'/home/guichristmann/Programming/TCC_Beo_Game/Beo_Audio/audio_files/MJIJBKQXBFORVMT.mp3'
p178
sS'fechou, fera'
p179
S'/home/guichristmann/Programming/TCC_Beo_Game/Beo_Audio/audio_files/OCWVZYSPBRWTGRF.mp3'
p180
sS'Is it patterned?'
p181
S'/home/guichristmann/Programming/TCC_Beo_Game/Beo_Audio/audio_files/OOMAECSWSQIYKMO.mp3'
p182
sS'Is it soft-cover?'
p183
S'/home/guichristmann/Programming/TCC_Beo_Game/Beo_Audio/audio_files/XUNDAKFSNTHEPFX.mp3'
p184
sS'Is it medium-sized?'
p185
S'/home/guichristmann/Programming/TCC_Beo_Game/Beo_Audio/audio_files/SPEYRUYEZWVYGYV.mp3'
p186
sS'Fuck it, I start.'
p187
S'/home/guichristmann/Programming/TCC_Beo_Game/Beo_Audio/audio_files/HCUCYNULKMYBTXA.mp3'
p188
sS'Quero mandar todo mundo ir chupar uma rola.'
p189
S'/home/guichristmann/Programming/TCC_Beo_Game/Beo_Audio/audio_files/DQRQJCWERMSXNMW.mp3'
p190
sS'Is it bouncy?'
p191
S'/home/guichristmann/Programming/TCC_Beo_Game/Beo_Audio/audio_files/EUOYKCJBSLULPNQ.mp3'
p192
sS'tunts tunts'
p193
S'/home/guichristmann/Programming/TCC_Beo_Game/Beo_Audio/audio_files/ZMOWMFZHKDCDUXJ.mp3'
p194
sS'Is it fiction?'
p195
S'/home/guichristmann/Programming/TCC_Beo_Game/Beo_Audio/audio_files/FHJGLCZSKREDHES.mp3'
p196
sS'Is it journal?'
p197
S'/home/guichristmann/Programming/TCC_Beo_Game/Beo_Audio/audio_files/QIGTRSRDJDDMWHW.mp3'
p198
sS'Is it light?'
p199
S'/home/guichristmann/Programming/TCC_Beo_Game/Beo_Audio/audio_files/XWKEYQXDIBBAVFL.mp3'
p200
sS'Is it rubbery?'
p201
S'/home/guichristmann/Programming/TCC_Beo_Game/Beo_Audio/audio_files/FMYUJUYOCMRMYTH.mp3'
p202
s.