(lp0
(dp1
I0
I222
sI1
I763
sI2
I538
sI3
I498
sI4
I635
sI5
I745
sI6
I514
sI7
I557
sI8
I506
sI9
F0.5000000000000001
sa(dp2
I0
I523
sI1
I764
sI2
I539
sI3
I503
sI4
I753
sI5
I746
sI6
I511
sI7
I558
sI8
I492
sI9
F0.40000000000000013
sa(dp3
I0
I523
sI1
I764
sI2
I702
sI3
I503
sI4
I746
sI5
I746
sI6
I511
sI7
I557
sI8
I412
sI9
F0.40000000000000013
sa(dp4
I0
I475
sI1
I764
sI2
I704
sI3
I503
sI4
I559
sI5
I746
sI6
I510
sI7
I557
sI8
I409
sI9
F0.5000000000000001
sa(dp5
I0
I227
sI1
I764
sI2
I539
sI3
I503
sI4
I601
sI5
I746
sI6
I510
sI7
I557
sI8
I497
sI9
F1.0
sa.