(lp0
(dp1
I0
I226
sI1
I786
sI2
I529
sI3
I494
sI4
I592
sI5
I736
sI6
I515
sI7
I560
sI8
I508
sI9
F0.5000000000000001
sa(dp2
I0
I465
sI1
I590
sI2
I640
sI3
I384
sI4
I596
sI5
I736
sI6
I515
sI7
I560
sI8
I508
sI9
F0.5000000000000001
sa(dp3
I0
I489
sI1
I543
sI2
I524
sI3
I513
sI4
I739
sI5
I563
sI6
I515
sI7
I560
sI8
I508
sI9
F0.5000000000000001
sa(dp4
I0
I666
sI1
I395
sI2
I597
sI3
I418
sI4
I604
sI5
I713
sI6
I515
sI7
I560
sI8
I508
sI9
F0.40000000000000013
sa(dp5
I0
I478
sI1
I570
sI2
I590
sI3
I467
sI4
I601
sI5
I713
sI6
I514
sI7
I559
sI8
I505
sI9
F0.40000000000000013
sa(dp6
I0
I309
sI1
I697
sI2
I560
sI3
I471
sI4
I745
sI5
I614
sI6
I514
sI7
I559
sI8
I505
sI9
F0.40000000000000013
sa(dp7
I0
I227
sI1
I784
sI2
I529
sI3
I494
sI4
I592
sI5
I736
sI6
I514
sI7
I559
sI8
I505
sI9
F0.30000000000000016
sa.