(lp0
(dp1
I0
I246
sI1
I777
sI2
I524
sI3
I499
sI4
I571
sI5
I775
sI6
I512
sI7
I560
sI8
I509
sI9
F0.6000000000000001
sa(dp2
I0
I458
sI1
I579
sI2
I521
sI3
I499
sI4
I568
sI5
I774
sI6
I512
sI7
I560
sI8
I507
sI9
F0.6000000000000001
sa(dp3
I0
I507
sI1
I505
sI2
I522
sI3
I502
sI4
I801
sI5
I529
sI6
I512
sI7
I560
sI8
I505
sI9
F0.6000000000000001
sa(dp4
I0
I209
sI1
I507
sI2
I524
sI3
I530
sI4
I637
sI5
I759
sI6
I512
sI7
I560
sI8
I506
sI9
F0.5000000000000001
sa(dp5
I0
I209
sI1
I344
sI2
I524
sI3
I533
sI4
I638
sI5
I617
sI6
I512
sI7
I560
sI8
I506
sI9
F0.5000000000000001
sa(dp6
I0
I163
sI1
I605
sI2
I567
sI3
I507
sI4
I619
sI5
I691
sI6
I512
sI7
I560
sI8
I506
sI9
F0.5000000000000001
sa(dp7
I0
I332
sI1
I822
sI2
I521
sI3
I459
sI4
I636
sI5
I691
sI6
I513
sI7
I560
sI8
I506
sI9
F0.5000000000000001
sa(dp8
I0
I154
sI1
I671
sI2
I521
sI3
I497
sI4
I638
sI5
I684
sI6
I512
sI7
I560
sI8
I506
sI9
F0.5000000000000001
sa(dp9
I0
I337
sI1
I836
sI2
I522
sI3
I474
sI4
I625
sI5
I689
sI6
I511
sI7
I560
sI8
I506
sI9
F0.5000000000000001
sa(dp10
I0
I151
sI1
I678
sI2
I525
sI3
I485
sI4
I622
sI5
I684
sI6
I510
sI7
I560
sI8
I506
sI9
F0.5000000000000001
sa(dp11
I0
I245
sI1
I768
sI2
I553
sI3
I485
sI4
I622
sI5
I689
sI6
I511
sI7
I560
sI8
I506
sI9
F0.5000000000000001
sa.