(lp0
(dp1
I0
I230
sI1
I767
sI2
I509
sI3
I505
sI4
I590
sI5
I784
sI6
I513
sI7
I558
sI8
I510
sI9
F0.5000000000000001
sa(dp2
I0
I482
sI1
I535
sI2
I556
sI3
I484
sI4
I554
sI5
I817
sI6
I513
sI7
I559
sI8
I510
sI9
F0.5000000000000001
sa(dp3
I0
I500
sI1
I513
sI2
I683
sI3
I399
sI4
I554
sI5
I818
sI6
I513
sI7
I559
sI8
I510
sI9
F0.5000000000000001
sa(dp4
I0
I509
sI1
I516
sI2
I540
sI3
I517
sI4
I554
sI5
I823
sI6
I513
sI7
I558
sI8
I510
sI9
F0.5000000000000001
sa(dp5
I0
I217
sI1
I768
sI2
I531
sI3
I506
sI4
I592
sI5
I764
sI6
I513
sI7
I558
sI8
I510
sI9
F0.40000000000000013
sa.