(lp0
(dp1
I0
I247
sI1
I751
sI2
I528
sI3
I511
sI4
I580
sI5
I783
sI6
I515
sI7
I557
sI8
I506
sI9
F0.30000000000000016
sa(dp2
I0
I485
sI1
I751
sI2
I530
sI3
I512
sI4
I600
sI5
I783
sI6
I515
sI7
I557
sI8
I506
sI9
F0.30000000000000016
sa(dp3
I0
I472
sI1
I752
sI2
I544
sI3
I512
sI4
I796
sI5
I783
sI6
I514
sI7
I557
sI8
I506
sI9
F0.30000000000000016
sa(dp4
I0
I220
sI1
I751
sI2
I534
sI3
I512
sI4
I645
sI5
I784
sI6
I515
sI7
I558
sI8
I506
sI9
F0.40000000000000013
sa.