(lp0
(dp1
I0
I251
sI1
I735
sI2
I522
sI3
I502
sI4
I558
sI5
I780
sI6
I515
sI7
I559
sI8
I508
sI9
F0.5000000000000001
sa(dp2
I0
I207
sI1
I537
sI2
I507
sI3
I525
sI4
I532
sI5
I776
sI6
I515
sI7
I559
sI8
I505
sI9
F0.5000000000000001
sa(dp3
I0
I207
sI1
I499
sI2
I507
sI3
I471
sI4
I532
sI5
I599
sI6
I510
sI7
I559
sI8
I371
sI9
F0.5000000000000001
sa(dp4
I0
I207
sI1
I459
sI2
I507
sI3
I520
sI4
I532
sI5
I800
sI6
I512
sI7
I559
sI8
I525
sI9
F0.5000000000000001
sa(dp5
I0
I420
sI1
I609
sI2
I575
sI3
I469
sI4
I532
sI5
I784
sI6
I512
sI7
I559
sI8
I525
sI9
F0.5000000000000001
sa(dp6
I0
I417
sI1
I604
sI2
I569
sI3
I472
sI4
I712
sI5
I612
sI6
I513
sI7
I560
sI8
I602
sI9
F0.5000000000000001
sa(dp7
I0
I549
sI1
I500
sI2
I630
sI3
I429
sI4
I505
sI5
I782
sI6
I514
sI7
I559
sI8
I520
sI9
F0.5000000000000001
sa(dp8
I0
I697
sI1
I336
sI2
I620
sI3
I388
sI4
I603
sI5
I745
sI6
I512
sI7
I557
sI8
I520
sI9
F0.5000000000000001
sa(dp9
I0
I256
sI1
I750
sI2
I541
sI3
I492
sI4
I599
sI5
I745
sI6
I512
sI7
I557
sI8
I518
sI9
F1.0
sa.