(lp0
(dp1
I0
I261
sI1
I748
sI2
I527
sI3
I499
sI4
I592
sI5
I755
sI6
I512
sI7
I557
sI8
I509
sI9
F0.30000000000000016
sa(dp2
I0
I261
sI1
I482
sI2
I527
sI3
I411
sI4
I592
sI5
I745
sI6
I512
sI7
I557
sI8
I509
sI9
F0.30000000000000016
sa(dp3
I0
I261
sI1
I640
sI2
I527
sI3
I511
sI4
I592
sI5
I700
sI6
I512
sI7
I557
sI8
I509
sI9
F0.30000000000000016
sa(dp4
I0
I406
sI1
I609
sI2
I524
sI3
I522
sI4
I816
sI5
I496
sI6
I512
sI7
I557
sI8
I509
sI9
F0.30000000000000016
sa(dp5
I0
I503
sI1
I527
sI2
I579
sI3
I470
sI4
I568
sI5
I744
sI6
I512
sI7
I557
sI8
I510
sI9
F0.30000000000000016
sa(dp6
I0
I242
sI1
I776
sI2
I527
sI3
I497
sI4
I574
sI5
I739
sI6
I512
sI7
I557
sI8
I510
sI9
F0.30000000000000016
sa.