(lp0
(dp1
I0
I230
sI1
I786
sI2
I520
sI3
I494
sI4
I593
sI5
I727
sI6
I512
sI7
I532
sI8
I532
sI9
F0.30000000000000016
sa(dp2
I0
I230
sI1
I786
sI2
I520
sI3
I495
sI4
I593
sI5
I727
sI6
I464
sI7
I568
sI8
I613
sI9
F0.30000000000000016
sa(dp3
I0
I342
sI1
I672
sI2
I518
sI3
I505
sI4
I600
sI5
I721
sI6
I475
sI7
I603
sI8
I610
sI9
F0.30000000000000016
sa(dp4
I0
I319
sI1
I688
sI2
I516
sI3
I495
sI4
I746
sI5
I624
sI6
I481
sI7
I597
sI8
I610
sI9
F0.30000000000000016
sa(dp5
I0
I229
sI1
I786
sI2
I520
sI3
I495
sI4
I593
sI5
I727
sI6
I504
sI7
I543
sI8
I532
sI9
F0.30000000000000016
sa.