(lp0
(dp1
I0
I247
sI1
I755
sI2
I527
sI3
I497
sI4
I554
sI5
I780
sI6
I517
sI7
I556
sI8
I510
sI9
F0.40000000000000013
sa(dp2
I0
I524
sI1
I756
sI2
I519
sI3
I497
sI4
I553
sI5
I782
sI6
I518
sI7
I556
sI8
I510
sI9
F0.40000000000000013
sa(dp3
I0
I494
sI1
I755
sI2
I519
sI3
I497
sI4
I794
sI5
I780
sI6
I517
sI7
I556
sI8
I510
sI9
F0.40000000000000013
sa(dp4
I0
I734
sI1
I755
sI2
I524
sI3
I497
sI4
I620
sI5
I780
sI6
I517
sI7
I556
sI8
I510
sI9
F0.40000000000000013
sa(dp5
I0
I481
sI1
I790
sI2
I522
sI3
I489
sI4
I673
sI5
I739
sI6
I517
sI7
I556
sI8
I510
sI9
F0.40000000000000013
sa(dp6
I0
I527
sI1
I503
sI2
I598
sI3
I392
sI4
I690
sI5
I692
sI6
I517
sI7
I556
sI8
I510
sI9
F0.40000000000000013
sa(dp7
I0
I237
sI1
I781
sI2
I522
sI3
I486
sI4
I622
sI5
I698
sI6
I517
sI7
I556
sI8
I510
sI9
F0.40000000000000013
sa(dp8
I0
I234
sI1
I486
sI2
I525
sI3
I340
sI4
I627
sI5
I693
sI6
I516
sI7
I556
sI8
I628
sI9
F0.40000000000000013
sa(dp9
I0
I235
sI1
I529
sI2
I525
sI3
I488
sI4
I627
sI5
I562
sI6
I512
sI7
I557
sI8
I508
sI9
F0.40000000000000013
sa(dp10
I0
I680
sI1
I388
sI2
I601
sI3
I410
sI4
I627
sI5
I663
sI6
I516
sI7
I557
sI8
I505
sI9
F0.30000000000000016
sa(dp11
I0
I516
sI1
I552
sI2
I716
sI3
I312
sI4
I628
sI5
I662
sI6
I511
sI7
I557
sI8
I504
sI9
F0.30000000000000016
sa(dp12
I0
I225
sI1
I782
sI2
I524
sI3
I499
sI4
I625
sI5
I729
sI6
I512
sI7
I557
sI8
I505
sI9
F0.40000000000000013
sa.