(lp0
(dp1
I0
I240
sI1
I765
sI2
I515
sI3
I516
sI4
I515
sI5
I821
sI6
I516
sI7
I563
sI8
I515
sI9
F0.40000000000000013
sa(dp2
I0
I547
sI1
I489
sI2
I538
sI3
I520
sI4
I514
sI5
I821
sI6
I516
sI7
I564
sI8
I515
sI9
F0.40000000000000013
sa(dp3
I0
I547
sI1
I488
sI2
I726
sI3
I333
sI4
I515
sI5
I821
sI6
I516
sI7
I563
sI8
I514
sI9
F0.40000000000000013
sa(dp4
I0
I523
sI1
I487
sI2
I723
sI3
I339
sI4
I822
sI5
I612
sI6
I516
sI7
I563
sI8
I515
sI9
F0.40000000000000013
sa(dp5
I0
I518
sI1
I493
sI2
I727
sI3
I336
sI4
I517
sI5
I829
sI6
I516
sI7
I564
sI8
I515
sI9
F0.40000000000000013
sa(dp6
I0
I522
sI1
I488
sI2
I526
sI3
I541
sI4
I519
sI5
I829
sI6
I516
sI7
I564
sI8
I515
sI9
F0.40000000000000013
sa(dp7
I0
I785
sI1
I233
sI2
I527
sI3
I507
sI4
I523
sI5
I821
sI6
I516
sI7
I564
sI8
I513
sI9
F0.40000000000000013
sa(dp8
I0
I245
sI1
I750
sI2
I526
sI3
I506
sI4
I520
sI5
I823
sI6
I515
sI7
I506
sI8
I536
sI9
F0.30000000000000016
sa(dp9
I0
I250
sI1
I742
sI2
I528
sI3
I504
sI4
I520
sI5
I827
sI6
I516
sI7
I564
sI8
I514
sI9
F0.30000000000000016
sa.