(lp0
(dp1
I0
I245
sI1
I767
sI2
I522
sI3
I497
sI4
I559
sI5
I777
sI6
I512
sI7
I557
sI8
I508
sI9
F0.30000000000000016
sa(dp2
I0
I245
sI1
I518
sI2
I522
sI3
I317
sI4
I559
sI5
I766
sI6
I512
sI7
I557
sI8
I508
sI9
F0.30000000000000016
sa(dp3
I0
I245
sI1
I560
sI2
I522
sI3
I320
sI4
I559
sI5
I611
sI6
I512
sI7
I557
sI8
I508
sI9
F0.30000000000000016
sa(dp4
I0
I303
sI1
I667
sI2
I518
sI3
I515
sI4
I753
sI5
I618
sI6
I512
sI7
I557
sI8
I509
sI9
F0.30000000000000016
sa(dp5
I0
I492
sI1
I553
sI2
I717
sI3
I331
sI4
I714
sI5
I617
sI6
I512
sI7
I557
sI8
I510
sI9
F0.30000000000000016
sa(dp6
I0
I241
sI1
I768
sI2
I522
sI3
I497
sI4
I557
sI5
I777
sI6
I512
sI7
I555
sI8
I509
sI9
F0.5
sa.