(lp0
(dp1
I0
I227
sI1
I779
sI2
I521
sI3
I504
sI4
I554
sI5
I782
sI6
I512
sI7
I557
sI8
I505
sI9
F0.4
sa(dp2
I0
I227
sI1
I779
sI2
I521
sI3
I504
sI4
I554
sI5
I782
sI6
I512
sI7
I557
sI8
I505
sI9
F0.4
sa(dp3
I0
I473
sI1
I779
sI2
I636
sI3
I504
sI4
I553
sI5
I782
sI6
I512
sI7
I557
sI8
I505
sI9
F0.4
sa(dp4
I0
I508
sI1
I781
sI2
I629
sI3
I504
sI4
I720
sI5
I782
sI6
I512
sI7
I557
sI8
I505
sI9
F0.4
sa(dp5
I0
I661
sI1
I350
sI2
I626
sI3
I409
sI4
I626
sI5
I784
sI6
I513
sI7
I557
sI8
I505
sI9
F0.4
sa(dp6
I0
I527
sI1
I754
sI2
I509
sI3
I499
sI4
I623
sI5
I782
sI6
I512
sI7
I557
sI8
I505
sI9
F0.4
sa(dp7
I0
I421
sI1
I643
sI2
I674
sI3
I340
sI4
I704
sI5
I641
sI6
I512
sI7
I557
sI8
I505
sI9
F0.4
sa(dp8
I0
I282
sI1
I731
sI2
I553
sI3
I490
sI4
I716
sI5
I658
sI6
I512
sI7
I557
sI8
I505
sI9
F0.4
sa(dp9
I0
I230
sI1
I778
sI2
I524
sI3
I503
sI4
I556
sI5
I782
sI6
I513
sI7
I557
sI8
I505
sI9
F0.40000000000000013
sa.