(lp0
(dp1
I0
I236
sI1
I777
sI2
I543
sI3
I488
sI4
I568
sI5
I746
sI6
I513
sI7
I557
sI8
I506
sI9
F0.5
sa(dp2
I0
I460
sI1
I573
sI2
I530
sI3
I487
sI4
I567
sI5
I743
sI6
I513
sI7
I557
sI8
I505
sI9
F0.5000000000000001
sa(dp3
I0
I481
sI1
I550
sI2
I707
sI3
I342
sI4
I566
sI5
I746
sI6
I512
sI7
I557
sI8
I504
sI9
F0.5000000000000001
sa(dp4
I0
I580
sI1
I753
sI2
I708
sI3
I490
sI4
I682
sI5
I747
sI6
I512
sI7
I558
sI8
I418
sI9
F0.5000000000000001
sa(dp5
I0
I569
sI1
I754
sI2
I702
sI3
I490
sI4
I552
sI5
I746
sI6
I512
sI7
I558
sI8
I419
sI9
F0.5000000000000001
sa(dp6
I0
I233
sI1
I776
sI2
I539
sI3
I490
sI4
I560
sI5
I747
sI6
I516
sI7
I557
sI8
I505
sI9
F0.5000000000000001
sa.