(lp0
(dp1
I0
I231
sI1
I774
sI2
I522
sI3
I505
sI4
I551
sI5
I783
sI6
I511
sI7
I557
sI8
I505
sI9
F0.40000000000000013
sa(dp2
I0
I503
sI1
I775
sI2
I524
sI3
I505
sI4
I637
sI5
I783
sI6
I516
sI7
I547
sI8
I528
sI9
F0.40000000000000013
sa(dp3
I0
I227
sI1
I775
sI2
I522
sI3
I505
sI4
I554
sI5
I784
sI6
I516
sI7
I553
sI8
I504
sI9
F0.30000000000000016
sa(dp4
I0
I227
sI1
I775
sI2
I524
sI3
I505
sI4
I554
sI5
I783
sI6
I554
sI7
I559
sI8
I457
sI9
F0.40000000000000013
sa(dp5
I0
I227
sI1
I775
sI2
I524
sI3
I505
sI4
I554
sI5
I783
sI6
I554
sI7
I559
sI8
I457
sI9
F0.30000000000000016
sa(dp6
I0
I229
sI1
I773
sI2
I521
sI3
I505
sI4
I556
sI5
I783
sI6
I516
sI7
I540
sI8
I505
sI9
F0.6000000000000001
sa.