(lp0
(dp1
I0
I230
sI1
I765
sI2
I522
sI3
I497
sI4
I571
sI5
I779
sI6
I516
sI7
I576
sI8
I508
sI9
F0.40000000000000013
sa(dp2
I0
I487
sI1
I535
sI2
I520
sI3
I502
sI4
I762
sI5
I591
sI6
I517
sI7
I576
sI8
I508
sI9
F0.40000000000000013
sa(dp3
I0
I481
sI1
I542
sI2
I650
sI3
I366
sI4
I754
sI5
I601
sI6
I512
sI7
I576
sI8
I508
sI9
F0.40000000000000013
sa(dp4
I0
I657
sI1
I348
sI2
I611
sI3
I406
sI4
I672
sI5
I716
sI6
I513
sI7
I576
sI8
I508
sI9
F0.40000000000000013
sa(dp5
I0
I457
sI1
I592
sI2
I595
sI3
I451
sI4
I789
sI5
I607
sI6
I516
sI7
I567
sI8
I510
sI9
F0.40000000000000013
sa(dp6
I0
I498
sI1
I518
sI2
I497
sI3
I541
sI4
I563
sI5
I776
sI6
I512
sI7
I562
sI8
I509
sI9
F0.40000000000000013
sa(dp7
I0
I252
sI1
I767
sI2
I520
sI3
I504
sI4
I564
sI5
I767
sI6
I512
sI7
I561
sI8
I508
sI9
F0.9
sa.