(lp0
(dp1
I0
I217
sI1
I773
sI2
I531
sI3
I492
sI4
I613
sI5
I742
sI6
I512
sI7
I559
sI8
I508
sI9
F0.8
sa(dp2
I0
I523
sI1
I503
sI2
I534
sI3
I493
sI4
I613
sI5
I743
sI6
I512
sI7
I559
sI8
I508
sI9
F0.8
sa(dp3
I0
I217
sI1
I775
sI2
I530
sI3
I492
sI4
I611
sI5
I745
sI6
I515
sI7
I555
sI8
I508
sI9
F1.0
sa.