(lp0
(dp1
I0
I234
sI1
I785
sI2
I525
sI3
I503
sI4
I550
sI5
I757
sI6
I524
sI7
I557
sI8
I508
sI9
F0.5000000000000001
sa(dp2
I0
I230
sI1
I502
sI2
I521
sI3
I515
sI4
I547
sI5
I752
sI6
I524
sI7
I555
sI8
I508
sI9
F0.5000000000000001
sa(dp3
I0
I234
sI1
I785
sI2
I525
sI3
I503
sI4
I550
sI5
I757
sI6
I524
sI7
I557
sI8
I508
sI9
F0.5000000000000001
sa.