(lp0
(dp1
I0
I234
sI1
I774
sI2
I522
sI3
I511
sI4
I593
sI5
I760
sI6
I524
sI7
I556
sI8
I508
sI9
F0.6000000000000001
sa(dp2
I0
I517
sI1
I774
sI2
I524
sI3
I511
sI4
I595
sI5
I760
sI6
I524
sI7
I555
sI8
I508
sI9
F0.5000000000000001
sa(dp3
I0
I550
sI1
I773
sI2
I696
sI3
I511
sI4
I596
sI5
I760
sI6
I524
sI7
I556
sI8
I508
sI9
F0.5000000000000001
sa(dp4
I0
I532
sI1
I775
sI2
I691
sI3
I514
sI4
I785
sI5
I762
sI6
I524
sI7
I552
sI8
I508
sI9
F0.5000000000000001
sa(dp5
I0
I229
sI1
I777
sI2
I519
sI3
I514
sI4
I589
sI5
I762
sI6
I524
sI7
I552
sI8
I508
sI9
F1.0
sa.