(lp0
(dp1
I0
I246
sI1
I775
sI2
I522
sI3
I505
sI4
I559
sI5
I755
sI6
I518
sI7
I557
sI8
I510
sI9
F0.30000000000000016
sa(dp2
I0
I246
sI1
I293
sI2
I522
sI3
I525
sI4
I558
sI5
I693
sI6
I517
sI7
I557
sI8
I393
sI9
F0.30000000000000016
sa(dp3
I0
I246
sI1
I294
sI2
I522
sI3
I546
sI4
I558
sI5
I693
sI6
I518
sI7
I557
sI8
I394
sI9
F0.40000000000000013
sa(dp4
I0
I246
sI1
I291
sI2
I522
sI3
I456
sI4
I558
sI5
I692
sI6
I517
sI7
I557
sI8
I394
sI9
F0.40000000000000013
sa(dp5
I0
I245
sI1
I302
sI2
I522
sI3
I512
sI4
I558
sI5
I698
sI6
I518
sI7
I557
sI8
I404
sI9
F0.40000000000000013
sa(dp6
I0
I245
sI1
I302
sI2
I522
sI3
I457
sI4
I559
sI5
I697
sI6
I518
sI7
I557
sI8
I404
sI9
F0.30000000000000016
sa(dp7
I0
I245
sI1
I302
sI2
I522
sI3
I507
sI4
I558
sI5
I697
sI6
I518
sI7
I557
sI8
I521
sI9
F0.30000000000000016
sa(dp8
I0
I245
sI1
I790
sI2
I522
sI3
I499
sI4
I558
sI5
I727
sI6
I520
sI7
I558
sI8
I517
sI9
F0.30000000000000016
sa.