(lp0
(dp1
I0
I231
sI1
I767
sI2
I527
sI3
I511
sI4
I553
sI5
I794
sI6
I520
sI7
I557
sI8
I510
sI9
F0.5000000000000001
sa(dp2
I0
I481
sI1
I535
sI2
I526
sI3
I511
sI4
I552
sI5
I795
sI6
I520
sI7
I557
sI8
I510
sI9
F0.5000000000000001
sa(dp3
I0
I572
sI1
I486
sI2
I639
sI3
I414
sI4
I643
sI5
I671
sI6
I518
sI7
I557
sI8
I510
sI9
F0.5000000000000001
sa(dp4
I0
I498
sI1
I529
sI2
I524
sI3
I523
sI4
I643
sI5
I672
sI6
I520
sI7
I557
sI8
I510
sI9
F0.5000000000000001
sa(dp5
I0
I484
sI1
I544
sI2
I503
sI3
I522
sI4
I797
sI5
I519
sI6
I518
sI7
I557
sI8
I510
sI9
F0.5000000000000001
sa(dp6
I0
I481
sI1
I544
sI2
I503
sI3
I522
sI4
I553
sI5
I724
sI6
I520
sI7
I557
sI8
I510
sI9
F0.5000000000000001
sa(dp7
I0
I472
sI1
I782
sI2
I674
sI3
I507
sI4
I612
sI5
I725
sI6
I518
sI7
I557
sI8
I510
sI9
F0.40000000000000013
sa(dp8
I0
I367
sI1
I782
sI2
I519
sI3
I507
sI4
I570
sI5
I724
sI6
I520
sI7
I557
sI8
I510
sI9
F0.5000000000000001
sa(dp9
I0
I247
sI1
I782
sI2
I518
sI3
I507
sI4
I568
sI5
I724
sI6
I520
sI7
I557
sI8
I510
sI9
F0.40000000000000013
sa(dp10
I0
I484
sI1
I561
sI2
I571
sI3
I438
sI4
I646
sI5
I687
sI6
I520
sI7
I557
sI8
I509
sI9
F0.5000000000000001
sa(dp11
I0
I233
sI1
I787
sI2
I520
sI3
I505
sI4
I565
sI5
I745
sI6
I520
sI7
I557
sI8
I509
sI9
F0.30000000000000016
sa.