(lp0
(dp1
I0
I231
sI1
I759
sI2
I525
sI3
I506
sI4
I595
sI5
I752
sI6
I522
sI7
I556
sI8
I510
sI9
F0.5000000000000001
sa(dp2
I0
I457
sI1
I569
sI2
I503
sI3
I512
sI4
I817
sI5
I517
sI6
I522
sI7
I556
sI8
I511
sI9
F0.6000000000000001
sa(dp3
I0
I420
sI1
I634
sI2
I630
sI3
I429
sI4
I717
sI5
I618
sI6
I522
sI7
I556
sI8
I511
sI9
F0.6000000000000001
sa(dp4
I0
I220
sI1
I792
sI2
I549
sI3
I465
sI4
I717
sI5
I618
sI6
I522
sI7
I556
sI8
I511
sI9
F0.5000000000000001
sa(dp5
I0
I517
sI1
I793
sI2
I674
sI3
I465
sI4
I638
sI5
I618
sI6
I517
sI7
I555
sI8
I418
sI9
F0.5000000000000001
sa(dp6
I0
I216
sI1
I793
sI2
I528
sI3
I465
sI4
I630
sI5
I614
sI6
I521
sI7
I556
sI8
I517
sI9
F0.5000000000000001
sa(dp7
I0
I216
sI1
I342
sI2
I528
sI3
I401
sI4
I630
sI5
I679
sI6
I521
sI7
I556
sI8
I517
sI9
F0.5000000000000001
sa(dp8
I0
I478
sI1
I564
sI2
I524
sI3
I506
sI4
I632
sI5
I679
sI6
I521
sI7
I556
sI8
I517
sI9
F0.6000000000000001
sa(dp9
I0
I466
sI1
I593
sI2
I662
sI3
I366
sI4
I632
sI5
I679
sI6
I521
sI7
I556
sI8
I517
sI9
F0.5000000000000001
sa(dp10
I0
I618
sI1
I439
sI2
I669
sI3
I346
sI4
I636
sI5
I679
sI6
I521
sI7
I556
sI8
I517
sI9
F0.5000000000000001
sa(dp11
I0
I231
sI1
I759
sI2
I525
sI3
I506
sI4
I595
sI5
I752
sI6
I522
sI7
I556
sI8
I510
sI9
F0.30000000000000016
sa.