(lp0
(dp1
I0
I241
sI1
I775
sI2
I519
sI3
I504
sI4
I582
sI5
I751
sI6
I513
sI7
I557
sI8
I508
sI9
F0.5000000000000001
sa(dp2
I0
I500
sI1
I518
sI2
I664
sI3
I375
sI4
I581
sI5
I753
sI6
I514
sI7
I557
sI8
I508
sI9
F0.5000000000000001
sa(dp3
I0
I503
sI1
I514
sI2
I546
sI3
I502
sI4
I581
sI5
I751
sI6
I514
sI7
I557
sI8
I508
sI9
F0.5000000000000001
sa(dp4
I0
I202
sI1
I790
sI2
I548
sI3
I503
sI4
I581
sI5
I753
sI6
I514
sI7
I557
sI8
I508
sI9
F0.5000000000000001
sa(dp5
I0
I241
sI1
I775
sI2
I519
sI3
I504
sI4
I582
sI5
I751
sI6
I513
sI7
I557
sI8
I508
sI9
F0.5000000000000001
sa(dp6
I0
I202
sI1
I381
sI2
I548
sI3
I504
sI4
I581
sI5
I751
sI6
I514
sI7
I557
sI8
I507
sI9
F0.5000000000000001
sa(dp7
I0
I202
sI1
I249
sI2
I548
sI3
I523
sI4
I580
sI5
I580
sI6
I514
sI7
I557
sI8
I509
sI9
F0.5000000000000001
sa(dp8
I0
I202
sI1
I459
sI2
I548
sI3
I545
sI4
I581
sI5
I783
sI6
I514
sI7
I557
sI8
I509
sI9
F0.5000000000000001
sa(dp9
I0
I202
sI1
I459
sI2
I548
sI3
I545
sI4
I581
sI5
I783
sI6
I514
sI7
I557
sI8
I509
sI9
F0.20000000000000015
sa(dp10
I0
I241
sI1
I775
sI2
I519
sI3
I504
sI4
I582
sI5
I751
sI6
I513
sI7
I557
sI8
I508
sI9
F0.5000000000000001
sa.