(lp0
(dp1
I0
I245
sI1
I774
sI2
I525
sI3
I505
sI4
I589
sI5
I762
sI6
I520
sI7
I557
sI8
I505
sI9
F0.40000000000000013
sa(dp2
I0
I245
sI1
I454
sI2
I525
sI3
I506
sI4
I589
sI5
I762
sI6
I518
sI7
I557
sI8
I506
sI9
F0.40000000000000013
sa(dp3
I0
I245
sI1
I723
sI2
I525
sI3
I506
sI4
I589
sI5
I762
sI6
I520
sI7
I557
sI8
I506
sI9
F1.0
sa.