(lp0
(dp1
I0
I254
sI1
I765
sI2
I520
sI3
I511
sI4
I588
sI5
I792
sI6
I520
sI7
I557
sI8
I506
sI9
F0.6000000000000001
sa(dp2
I0
I503
sI1
I770
sI2
I521
sI3
I514
sI4
I586
sI5
I794
sI6
I518
sI7
I557
sI8
I506
sI9
F0.6000000000000001
sa(dp3
I0
I504
sI1
I770
sI2
I727
sI3
I514
sI4
I588
sI5
I793
sI6
I520
sI7
I557
sI8
I506
sI9
F0.6000000000000001
sa(dp4
I0
I510
sI1
I770
sI2
I721
sI3
I514
sI4
I772
sI5
I793
sI6
I520
sI7
I557
sI8
I506
sI9
F0.6000000000000001
sa(dp5
I0
I518
sI1
I770
sI2
I699
sI3
I514
sI4
I768
sI5
I793
sI6
I516
sI7
I557
sI8
I408
sI9
F0.5000000000000001
sa(dp6
I0
I513
sI1
I770
sI2
I542
sI3
I514
sI4
I768
sI5
I793
sI6
I516
sI7
I557
sI8
I518
sI9
F0.5000000000000001
sa(dp7
I0
I501
sI1
I775
sI2
I541
sI3
I517
sI4
I551
sI5
I794
sI6
I515
sI7
I557
sI8
I517
sI9
F0.5000000000000001
sa(dp8
I0
I226
sI1
I775
sI2
I535
sI3
I502
sI4
I572
sI5
I788
sI6
I515
sI7
I557
sI8
I517
sI9
F0.5000000000000001
sa.