(lp0
(dp1
I0
I236
sI1
I775
sI2
I522
sI3
I509
sI4
I589
sI5
I778
sI6
I516
sI7
I557
sI8
I509
sI9
F0.6000000000000001
sa(dp2
I0
I231
sI1
I766
sI2
I535
sI3
I485
sI4
I590
sI5
I784
sI6
I517
sI7
I620
sI8
I508
sI9
F0.6000000000000001
sa(dp3
I0
I694
sI1
I309
sI2
I447
sI3
I585
sI4
I596
sI5
I777
sI6
I517
sI7
I619
sI8
I508
sI9
F0.40000000000000013
sa(dp4
I0
I231
sI1
I766
sI2
I535
sI3
I485
sI4
I590
sI5
I783
sI6
I517
sI7
I539
sI8
I509
sI9
F0.40000000000000013
sa(dp5
I0
I231
sI1
I511
sI2
I535
sI3
I479
sI4
I590
sI5
I778
sI6
I517
sI7
I539
sI8
I509
sI9
F0.40000000000000013
sa(dp6
I0
I231
sI1
I510
sI2
I535
sI3
I592
sI4
I590
sI5
I778
sI6
I517
sI7
I539
sI8
I509
sI9
F0.40000000000000013
sa(dp7
I0
I231
sI1
I503
sI2
I535
sI3
I430
sI4
I590
sI5
I778
sI6
I517
sI7
I539
sI8
I509
sI9
F0.40000000000000013
sa(dp8
I0
I231
sI1
I781
sI2
I535
sI3
I502
sI4
I590
sI5
I733
sI6
I517
sI7
I538
sI8
I509
sI9
F0.40000000000000013
sa.