(lp0
(dp1
I0
I235
sI1
I768
sI2
I525
sI3
I499
sI4
I556
sI5
I800
sI6
I512
sI7
I560
sI8
I505
sI9
F0.40000000000000013
sa(dp2
I0
I511
sI1
I768
sI2
I631
sI3
I499
sI4
I557
sI5
I800
sI6
I511
sI7
I560
sI8
I505
sI9
F0.30000000000000016
sa(dp3
I0
I547
sI1
I768
sI2
I626
sI3
I499
sI4
I751
sI5
I800
sI6
I512
sI7
I561
sI8
I505
sI9
F0.30000000000000016
sa(dp4
I0
I522
sI1
I768
sI2
I505
sI3
I499
sI4
I582
sI5
I800
sI6
I512
sI7
I561
sI8
I505
sI9
F0.30000000000000016
sa.