(lp0
(dp1
I0
I230
sI1
I775
sI2
I530
sI3
I494
sI4
I606
sI5
I751
sI6
I512
sI7
I557
sI8
I507
sI9
F0.5000000000000001
sa(dp2
I0
I507
sI1
I500
sI2
I506
sI3
I545
sI4
I784
sI5
I561
sI6
I512
sI7
I557
sI8
I507
sI9
F0.40000000000000013
sa(dp3
I0
I521
sI1
I522
sI2
I664
sI3
I387
sI4
I613
sI5
I734
sI6
I512
sI7
I557
sI8
I507
sI9
F0.40000000000000013
sa(dp4
I0
I395
sI1
I611
sI2
I538
sI3
I531
sI4
I792
sI5
I566
sI6
I573
sI7
I557
sI8
I502
sI9
F0.40000000000000013
sa(dp5
I0
I473
sI1
I561
sI2
I586
sI3
I479
sI4
I567
sI5
I787
sI6
I569
sI7
I556
sI8
I516
sI9
F0.40000000000000013
sa(dp6
I0
I738
sI1
I314
sI2
I626
sI3
I400
sI4
I573
sI5
I778
sI6
I523
sI7
I558
sI8
I502
sI9
F0.5000000000000001
sa(dp7
I0
I247
sI1
I762
sI2
I532
sI3
I488
sI4
I605
sI5
I730
sI6
I523
sI7
I558
sI8
I504
sI9
F0.8
sa(dp8
I0
I247
sI1
I762
sI2
I532
sI3
I488
sI4
I605
sI5
I730
sI6
I523
sI7
I558
sI8
I504
sI9
F1.0
sa.