(lp0
(dp1
I0
I225
sI1
I777
sI2
I521
sI3
I491
sI4
I551
sI5
I767
sI6
I514
sI7
I557
sI8
I507
sI9
F0.6000000000000001
sa(dp2
I0
I483
sI1
I781
sI2
I558
sI3
I498
sI4
I713
sI5
I763
sI6
I510
sI7
I570
sI8
I508
sI9
F0.6000000000000001
sa(dp3
I0
I516
sI1
I531
sI2
I650
sI3
I399
sI4
I629
sI5
I738
sI6
I509
sI7
I570
sI8
I508
sI9
F0.6000000000000001
sa(dp4
I0
I626
sI1
I784
sI2
I550
sI3
I494
sI4
I627
sI5
I743
sI6
I509
sI7
I569
sI8
I411
sI9
F0.6000000000000001
sa(dp5
I0
I431
sI1
I784
sI2
I598
sI3
I493
sI4
I637
sI5
I743
sI6
I510
sI7
I571
sI8
I508
sI9
F0.6000000000000001
sa(dp6
I0
I346
sI1
I658
sI2
I554
sI3
I469
sI4
I636
sI5
I738
sI6
I510
sI7
I570
sI8
I508
sI9
F0.6000000000000001
sa(dp7
I0
I385
sI1
I631
sI2
I643
sI3
I391
sI4
I538
sI5
I800
sI6
I517
sI7
I568
sI8
I618
sI9
F0.6000000000000001
sa(dp8
I0
I212
sI1
I469
sI2
I536
sI3
I442
sI4
I616
sI5
I736
sI6
I511
sI7
I559
sI8
I628
sI9
F0.6000000000000001
sa(dp9
I0
I554
sI1
I487
sI2
I648
sI3
I378
sI4
I632
sI5
I737
sI6
I511
sI7
I570
sI8
I509
sI9
F0.6000000000000001
sa(dp10
I0
I745
sI1
I282
sI2
I704
sI3
I282
sI4
I625
sI5
I737
sI6
I513
sI7
I563
sI8
I507
sI9
F0.6000000000000001
sa(dp11
I0
I726
sI1
I283
sI2
I502
sI3
I502
sI4
I625
sI5
I736
sI6
I513
sI7
I563
sI8
I507
sI9
F0.6000000000000001
sa(dp12
I0
I221
sI1
I781
sI2
I517
sI3
I497
sI4
I558
sI5
I764
sI6
I513
sI7
I560
sI8
I507
sI9
F0.30000000000000016
sa.