(lp0
(dp1
I0
I219
sI1
I767
sI2
I526
sI3
I498
sI4
I598
sI5
I785
sI6
I520
sI7
I559
sI8
I514
sI9
F0.20000000000000015
sa(dp2
I0
I496
sI1
I525
sI2
I589
sI3
I470
sI4
I575
sI5
I778
sI6
I520
sI7
I559
sI8
I512
sI9
F0.20000000000000015
sa(dp3
I0
I503
sI1
I525
sI2
I550
sI3
I469
sI4
I713
sI5
I627
sI6
I520
sI7
I559
sI8
I512
sI9
F0.20000000000000015
sa(dp4
I0
I215
sI1
I770
sI2
I527
sI3
I497
sI4
I599
sI5
I786
sI6
I520
sI7
I559
sI8
I513
sI9
F0.40000000000000013
sa(dp5
I0
I211
sI1
I782
sI2
I529
sI3
I496
sI4
I597
sI5
I788
sI6
I472
sI7
I594
sI8
I524
sI9
F1.0
sa(dp6
I0
I223
sI1
I830
sI2
I585
sI3
I398
sI4
I672
sI5
I702
sI6
I535
sI7
I596
sI8
I487
sI9
F1.0
sa(dp7
I0
I223
sI1
I830
sI2
I585
sI3
I398
sI4
I672
sI5
I702
sI6
I535
sI7
I596
sI8
I487
sI9
F1.0
sa(dp8
I0
I226
sI1
I819
sI2
I512
sI3
I514
sI4
I667
sI5
I701
sI6
I515
sI7
I531
sI8
I481
sI9
F1.0
sa(dp9
I0
I226
sI1
I819
sI2
I513
sI3
I514
sI4
I667
sI5
I701
sI6
I516
sI7
I618
sI8
I496
sI9
F1.0
sa.