(lp0
(dp1
I0
I228
sI1
I773
sI2
I540
sI3
I480
sI4
I563
sI5
I749
sI6
I515
sI7
I582
sI8
I510
sI9
F0.20000000000000015
sa(dp2
I0
I375
sI1
I782
sI2
I479
sI3
I490
sI4
I482
sI5
I752
sI6
I511
sI7
I584
sI8
I508
sI9
F1.0
sa(dp3
I0
I355
sI1
I785
sI2
I501
sI3
I490
sI4
I518
sI5
I752
sI6
I511
sI7
I647
sI8
I586
sI9
F2.6000000000000014
sa(dp4
I0
I359
sI1
I783
sI2
I692
sI3
I489
sI4
I517
sI5
I752
sI6
I511
sI7
I646
sI8
I415
sI9
F1.0
sa.