(lp0
(dp1
I0
F217.0
sI1
I814
sI2
I522
sI3
I508
sI4
I657
sI5
I700
sI6
I518
sI7
I600
sI8
I614
sI9
F0.5000000000000001
sa(dp2
I0
I217
sI1
I814
sI2
I522
sI3
I508
sI4
I657
sI5
I700
sI6
I516
sI7
I599
sI8
I432
sI9
F0.5000000000000001
sa(dp3
I0
I442
sI1
I814
sI2
I527
sI3
I508
sI4
I800
sI5
I700
sI6
I514
sI7
I596
sI8
I501
sI9
F0.5000000000000001
sa(dp4
I0
I416
sI1
I815
sI2
I525
sI3
I508
sI4
I792
sI5
I700
sI6
I508
sI7
I519
sI8
I527
sI9
F0.30000000000000016
sa(dp5
I0
I408
sI1
I814
sI2
I520
sI3
I508
sI4
I694
sI5
I699
sI6
I511
sI7
I569
sI8
I513
sI9
F0.30000000000000016
sa(dp6
I0
I411
sI1
I814
sI2
I520
sI3
I508
sI4
I807
sI5
I699
sI6
I511
sI7
I569
sI8
I513
sI9
F0.30000000000000016
sa(dp7
I0
I416
sI1
I815
sI2
I525
sI3
I508
sI4
I792
sI5
I700
sI6
I515
sI7
I584
sI8
I515
sI9
F1.0
sa(dp8
I0
I427
sI1
I815
sI2
I696
sI3
I508
sI4
I794
sI5
I700
sI6
I513
sI7
I581
sI8
I513
sI9
F1.0
sa(dp9
I0
I439
sI1
I815
sI2
I519
sI3
I508
sI4
I830
sI5
I699
sI6
I512
sI7
I581
sI8
I513
sI9
F0.20000000000000015
sa(dp10
I0
I428
sI1
I588
sI2
I522
sI3
I518
sI4
I818
sI5
I507
sI6
I511
sI7
I580
sI8
I510
sI9
F0.20000000000000015
sa(dp11
I0
I219
sI1
I814
sI2
I519
sI3
I522
sI4
I787
sI5
I578
sI6
I511
sI7
I581
sI8
I510
sI9
F0.30000000000000016
sa(dp12
I0
I244
sI1
I797
sI2
I527
sI3
I526
sI4
I537
sI5
I805
sI6
I510
sI7
I581
sI8
I510
sI9
F1.0
sa.