(lp0
(dp1
I0
I231
sI1
I770
sI2
I521
sI3
I497
sI4
I540
sI5
I814
sI6
I514
sI7
I558
sI8
I514
sI9
F0.40000000000000013
sa(dp2
I0
I386
sI1
I612
sI2
I522
sI3
I514
sI4
I794
sI5
I569
sI6
I514
sI7
I557
sI8
I512
sI9
F0.40000000000000013
sa(dp3
I0
I526
sI1
I509
sI2
I522
sI3
I525
sI4
I560
sI5
I757
sI6
I515
sI7
I557
sI8
I512
sI9
F0.40000000000000013
sa(dp4
I0
I516
sI1
I484
sI2
I603
sI3
I405
sI4
I558
sI5
I762
sI6
I515
sI7
I558
sI8
I512
sI9
F0.40000000000000013
sa(dp5
I0
I713
sI1
I459
sI2
I613
sI3
I409
sI4
I563
sI5
I760
sI6
I515
sI7
I555
sI8
I392
sI9
F0.7000000000000001
sa(dp6
I0
I591
sI1
I431
sI2
I606
sI3
I406
sI4
I612
sI5
I761
sI6
I515
sI7
I558
sI8
I512
sI9
F0.6000000000000001
sa(dp7
I0
I543
sI1
I481
sI2
I497
sI3
I546
sI4
I616
sI5
I760
sI6
I515
sI7
I558
sI8
I512
sI9
F0.6000000000000001
sa(dp8
I0
I522
sI1
I375
sI2
I549
sI3
I422
sI4
I610
sI5
I759
sI6
I517
sI7
I555
sI8
I598
sI9
F0.7000000000000001
sa(dp9
I0
I668
sI1
I353
sI2
I527
sI3
I467
sI4
I612
sI5
I759
sI6
I516
sI7
I555
sI8
I515
sI9
F0.8
sa(dp10
I0
I547
sI1
I481
sI2
I701
sI3
I326
sI4
I608
sI5
I762
sI6
I512
sI7
I556
sI8
I515
sI9
F0.8
sa(dp11
I0
I532
sI1
I483
sI2
I692
sI3
I327
sI4
I741
sI5
I613
sI6
I512
sI7
I556
sI8
I517
sI9
F0.8
sa(dp12
I0
I230
sI1
I770
sI2
I521
sI3
I498
sI4
I540
sI5
I811
sI6
I512
sI7
I556
sI8
I516
sI9
F0.40000000000000013
sa.