(lp0
(dp1
I0
I221
sI1
I782
sI2
I534
sI3
I486
sI4
I554
sI5
I773
sI6
I514
sI7
I560
sI8
I508
sI9
F1.6000000000000005
sa(dp2
I0
I221
sI1
I782
sI2
I534
sI3
I486
sI4
I554
sI5
I773
sI6
I513
sI7
I560
sI8
I627
sI9
F1.6000000000000005
sa(dp3
I0
I221
sI1
I782
sI2
I534
sI3
I486
sI4
I554
sI5
I773
sI6
I514
sI7
I560
sI8
I392
sI9
F1.0
sa.