(lp0
(dp1
I0
I245
sI1
I762
sI2
I513
sI3
I497
sI4
I556
sI5
I784
sI6
I512
sI7
I557
sI8
I508
sI9
F0.6000000000000001
sa(dp2
I0
I574
sI1
I451
sI2
I651
sI3
I356
sI4
I556
sI5
I787
sI6
I512
sI7
I557
sI8
I509
sI9
F0.6000000000000001
sa(dp3
I0
I341
sI1
I652
sI2
I627
sI3
I393
sI4
I643
sI5
I732
sI6
I512
sI7
I557
sI8
I509
sI9
F0.30000000000000016
sa(dp4
I0
I242
sI1
I764
sI2
I514
sI3
I499
sI4
I557
sI5
I783
sI6
I512
sI7
I557
sI8
I509
sI9
F0.30000000000000016
sa.